target datalayout = "e-m:e-p270:32:32-p271:32:32-p272:64:64-i64:64-i128:128-f80:128-n8:16:32:64-S128"
target triple = "x86_64-pc-linux-gnu"

%struct._zval_struct = type { %union._zend_value, %union.anon, %union.anon.2 }
%union._zend_value = type { i64 }
%union.anon = type { i32 }
%union.anon.2 = type { i32 }
%struct._zend_refcounted_h = type { i32, %union.anon.3 }
%union.anon.3 = type { i32 }
%struct._zend_execute_data = type { ptr, ptr, ptr, ptr, %struct._zval_struct, ptr, ptr, ptr, ptr }
%struct._zend_string = type { %struct._zend_refcounted_h, i64, i64, [1 x i8] }
%struct.in_addr = type { i32 }
%struct.hostent = type { ptr, ptr, i32, i32, ptr }

@.str.2 = private unnamed_addr constant [46 x i8] c"Host name cannot be longer than %d characters\00", align 1
@.str.3 = private unnamed_addr constant [26 x i8] c"Host name to ip failed %s\00", align 1

; Function Attrs: nounwind uwtable
define hidden void @zif_gethostbynamel(ptr noundef %0, ptr noundef %1) #0 {
  %3 = alloca ptr, align 8
  %4 = alloca ptr, align 8
  %5 = alloca i1, align 1
  %6 = alloca ptr, align 8
  %7 = alloca ptr, align 8
  %8 = alloca i8, align 1
  %9 = alloca i32, align 4
  %10 = alloca i8, align 1
  %11 = alloca ptr, align 8
  %12 = alloca i64, align 8
  %13 = alloca ptr, align 8
  %14 = alloca ptr, align 8
  %15 = alloca i8, align 1
  %16 = alloca i32, align 4
  %17 = alloca i1, align 1
  %18 = alloca ptr, align 8
  %19 = alloca ptr, align 8
  %20 = alloca i8, align 1
  %21 = alloca i32, align 4
  %22 = alloca i1, align 1
  %23 = alloca ptr, align 8
  %24 = alloca ptr, align 8
  %25 = alloca ptr, align 8
  %26 = alloca i8, align 1
  %27 = alloca i32, align 4
  %28 = alloca ptr, align 8
  %29 = alloca ptr, align 8
  %30 = alloca ptr, align 8
  %31 = alloca ptr, align 8
  %32 = alloca i64, align 8
  %33 = alloca ptr, align 8
  %34 = alloca %struct.in_addr, align 4
  %35 = alloca i32, align 4
  %36 = alloca [16 x i8], align 16
  %37 = alloca i32, align 4
  %38 = alloca i32, align 4
  %39 = alloca i32, align 4
  %40 = alloca i32, align 4
  %41 = alloca i32, align 4
  %42 = alloca ptr, align 8
  %43 = alloca ptr, align 8
  %44 = alloca i32, align 4
  %45 = alloca ptr, align 8
  %46 = alloca i8, align 1
  %47 = alloca i8, align 1
  %48 = alloca i32, align 4
  %49 = alloca ptr, align 8
  %50 = alloca ptr, align 8
  %51 = alloca ptr, align 8
  %52 = alloca ptr, align 8
  store ptr %0, ptr %29, align 8
  store ptr %1, ptr %30, align 8
  br label %53

53:                                               ; preds = %2
  store i32 0, ptr %37, align 4
  store i32 1, ptr %38, align 4
  store i32 1, ptr %39, align 4
  %54 = load ptr, ptr %29, align 8
  %55 = getelementptr inbounds %struct._zend_execute_data, ptr %54, i32 0, i32 4
  %56 = getelementptr inbounds %struct._zval_struct, ptr %55, i32 0, i32 2
  %57 = load i32, ptr %56, align 4
  store i32 %57, ptr %40, align 4
  store i32 0, ptr %41, align 4
  store ptr null, ptr %43, align 8
  store i32 0, ptr %44, align 4
  store ptr null, ptr %45, align 8
  store i8 0, ptr %46, align 1
  store i8 0, ptr %47, align 1
  store i32 0, ptr %48, align 4
  br label %58

58:                                               ; preds = %53
  %59 = load i32, ptr %40, align 4
  %60 = load i32, ptr %38, align 4
  %61 = icmp ult i32 %59, %60
  %62 = xor i1 %61, true
  %63 = xor i1 %62, true
  %64 = zext i1 %63 to i32
  %65 = sext i32 %64 to i64
  %66 = icmp ne i64 %65, 0
  br i1 %66, label %76, label %67

67:                                               ; preds = %58
  %68 = load i32, ptr %40, align 4
  %69 = load i32, ptr %39, align 4
  %70 = icmp ugt i32 %68, %69
  %71 = xor i1 %70, true
  %72 = xor i1 %71, true
  %73 = zext i1 %72 to i32
  %74 = sext i32 %73 to i64
  %75 = icmp ne i64 %74, 0
  br i1 %75, label %76, label %79

76:                                               ; preds = %67, %58
  %77 = load i32, ptr %38, align 4
  %78 = load i32, ptr %39, align 4
  call void @zend_wrong_parameters_count_error(i32 noundef %77, i32 noundef %78)
  store i32 1, ptr %48, align 4
  br label %236

79:                                               ; preds = %67
  %80 = load ptr, ptr %29, align 8
  %81 = getelementptr inbounds %struct._zval_struct, ptr %80, i64 4
  store ptr %81, ptr %42, align 8
  %82 = load i32, ptr %41, align 4
  %83 = add i32 %82, 1
  store i32 %83, ptr %41, align 4
  %84 = load i32, ptr %41, align 4
  %85 = load i32, ptr %38, align 4
  %86 = icmp ule i32 %84, %85
  br i1 %86, label %92, label %87

87:                                               ; preds = %79
  %88 = load i8, ptr %47, align 1
  %89 = trunc i8 %88 to i1
  %90 = zext i1 %89 to i32
  %91 = icmp eq i32 %90, 1
  br label %92

92:                                               ; preds = %87, %79
  %93 = phi i1 [ true, %79 ], [ %91, %87 ]
  call void @llvm.assume(i1 %93)
  %94 = load i32, ptr %41, align 4
  %95 = load i32, ptr %38, align 4
  %96 = icmp ugt i32 %94, %95
  br i1 %96, label %102, label %97

97:                                               ; preds = %92
  %98 = load i8, ptr %47, align 1
  %99 = trunc i8 %98 to i1
  %100 = zext i1 %99 to i32
  %101 = icmp eq i32 %100, 0
  br label %102

102:                                              ; preds = %97, %92
  %103 = phi i1 [ true, %92 ], [ %101, %97 ]
  call void @llvm.assume(i1 %103)
  %104 = load i8, ptr %47, align 1
  %105 = trunc i8 %104 to i1
  br i1 %105, label %106, label %117

106:                                              ; preds = %102
  %107 = load i32, ptr %41, align 4
  %108 = load i32, ptr %40, align 4
  %109 = icmp ugt i32 %107, %108
  %110 = xor i1 %109, true
  %111 = xor i1 %110, true
  %112 = zext i1 %111 to i32
  %113 = sext i32 %112 to i64
  %114 = icmp ne i64 %113, 0
  br i1 %114, label %115, label %116

115:                                              ; preds = %106
  br label %236

116:                                              ; preds = %106
  br label %117

117:                                              ; preds = %116, %102
  %118 = load ptr, ptr %42, align 8
  %119 = getelementptr inbounds %struct._zval_struct, ptr %118, i32 1
  store ptr %119, ptr %42, align 8
  %120 = load ptr, ptr %42, align 8
  store ptr %120, ptr %43, align 8
  %121 = load ptr, ptr %43, align 8
  %122 = load i32, ptr %41, align 4
  store ptr %121, ptr %23, align 8
  store ptr %31, ptr %24, align 8
  store ptr %32, ptr %25, align 8
  store i8 0, ptr %26, align 1
  store i32 %122, ptr %27, align 4
  %123 = load ptr, ptr %23, align 8
  %124 = load i8, ptr %26, align 1
  %125 = trunc i8 %124 to i1
  %126 = load i32, ptr %27, align 4
  store ptr %123, ptr %18, align 8
  store ptr %28, ptr %19, align 8
  %127 = zext i1 %125 to i8
  store i8 %127, ptr %20, align 1
  store i32 %126, ptr %21, align 4
  %128 = load ptr, ptr %18, align 8
  %129 = load ptr, ptr %19, align 8
  %130 = load i8, ptr %20, align 1
  %131 = trunc i8 %130 to i1
  %132 = load i32, ptr %21, align 4
  store ptr %128, ptr %13, align 8
  store ptr %129, ptr %14, align 8
  %133 = zext i1 %131 to i8
  store i8 %133, ptr %15, align 1
  store i32 %132, ptr %16, align 4
  %134 = load ptr, ptr %13, align 8
  %135 = load ptr, ptr %14, align 8
  %136 = load i8, ptr %15, align 1
  %137 = trunc i8 %136 to i1
  %138 = load i32, ptr %16, align 4
  store ptr %134, ptr %6, align 8
  store ptr %135, ptr %7, align 8
  %139 = zext i1 %137 to i8
  store i8 %139, ptr %8, align 1
  store i32 %138, ptr %9, align 4
  store i8 0, ptr %10, align 1
  %140 = load ptr, ptr %6, align 8
  store ptr %140, ptr %3, align 8
  %141 = load ptr, ptr %3, align 8
  %142 = getelementptr inbounds %struct._zval_struct, ptr %141, i32 0, i32 1
  %143 = load i8, ptr %142, align 8
  %144 = zext i8 %143 to i32
  %145 = icmp eq i32 %144, 6
  br i1 %145, label %146, label %150

146:                                              ; preds = %117
  %147 = load ptr, ptr %6, align 8
  %148 = load ptr, ptr %147, align 8
  %149 = load ptr, ptr %7, align 8
  store ptr %148, ptr %149, align 8
  br label %175

150:                                              ; preds = %117
  %151 = load i8, ptr %8, align 1
  %152 = trunc i8 %151 to i1
  br i1 %152, label %153, label %162

153:                                              ; preds = %150
  %154 = load ptr, ptr %6, align 8
  store ptr %154, ptr %4, align 8
  %155 = load ptr, ptr %4, align 8
  %156 = getelementptr inbounds %struct._zval_struct, ptr %155, i32 0, i32 1
  %157 = load i8, ptr %156, align 8
  %158 = zext i8 %157 to i32
  %159 = icmp eq i32 %158, 1
  br i1 %159, label %160, label %162

160:                                              ; preds = %153
  %161 = load ptr, ptr %7, align 8
  store ptr null, ptr %161, align 8
  br label %175

162:                                              ; preds = %153, %150
  %163 = load i8, ptr %10, align 1
  %164 = trunc i8 %163 to i1
  br i1 %164, label %165, label %170

165:                                              ; preds = %162
  %166 = load ptr, ptr %6, align 8
  %167 = load ptr, ptr %7, align 8
  %168 = load i32, ptr %9, align 4
  %169 = call zeroext i1 @zend_flf_parse_arg_str_slow(ptr noundef %166, ptr noundef %167, i32 noundef %168) #10
  store i1 %169, ptr %5, align 1
  br label %176

170:                                              ; preds = %162
  %171 = load ptr, ptr %6, align 8
  %172 = load ptr, ptr %7, align 8
  %173 = load i32, ptr %9, align 4
  %174 = call zeroext i1 @zend_parse_arg_str_slow(ptr noundef %171, ptr noundef %172, i32 noundef %173) #10
  store i1 %174, ptr %5, align 1
  br label %176

175:                                              ; preds = %160, %146
  store i1 true, ptr %5, align 1
  br label %176

176:                                              ; preds = %175, %170, %165
  %177 = load i1, ptr %5, align 1
  br i1 %177, label %178, label %194

178:                                              ; preds = %176
  %179 = load ptr, ptr %19, align 8
  %180 = load ptr, ptr %179, align 8
  %181 = icmp ne ptr %180, null
  br i1 %181, label %182, label %195

182:                                              ; preds = %178
  %183 = load ptr, ptr %19, align 8
  %184 = load ptr, ptr %183, align 8
  %185 = getelementptr inbounds %struct._zend_string, ptr %184, i32 0, i32 3
  %186 = load ptr, ptr %19, align 8
  %187 = load ptr, ptr %186, align 8
  %188 = getelementptr inbounds %struct._zend_string, ptr %187, i32 0, i32 2
  %189 = load i64, ptr %188, align 8
  store ptr %185, ptr %11, align 8
  store i64 %189, ptr %12, align 8
  %190 = load i64, ptr %12, align 8
  %191 = load ptr, ptr %11, align 8
  %192 = call i64 @strlen(ptr noundef %191) #12
  %193 = icmp ne i64 %190, %192
  br i1 %193, label %194, label %195

194:                                              ; preds = %182, %176
  store i1 false, ptr %17, align 1
  br label %196

195:                                              ; preds = %182, %178
  store i1 true, ptr %17, align 1
  br label %196

196:                                              ; preds = %195, %194
  %197 = load i1, ptr %17, align 1
  br i1 %197, label %199, label %198

198:                                              ; preds = %196
  store i1 false, ptr %22, align 1
  br label %218

199:                                              ; preds = %196
  %200 = load i8, ptr %26, align 1
  %201 = trunc i8 %200 to i1
  br i1 %201, label %202, label %209

202:                                              ; preds = %199
  %203 = load ptr, ptr %28, align 8
  %204 = icmp ne ptr %203, null
  %205 = xor i1 %204, true
  br i1 %205, label %206, label %209

206:                                              ; preds = %202
  %207 = load ptr, ptr %24, align 8
  store ptr null, ptr %207, align 8
  %208 = load ptr, ptr %25, align 8
  store i64 0, ptr %208, align 8
  br label %217

209:                                              ; preds = %202, %199
  %210 = load ptr, ptr %28, align 8
  %211 = getelementptr inbounds %struct._zend_string, ptr %210, i32 0, i32 3
  %212 = load ptr, ptr %24, align 8
  store ptr %211, ptr %212, align 8
  %213 = load ptr, ptr %28, align 8
  %214 = getelementptr inbounds %struct._zend_string, ptr %213, i32 0, i32 2
  %215 = load i64, ptr %214, align 8
  %216 = load ptr, ptr %25, align 8
  store i64 %215, ptr %216, align 8
  br label %217

217:                                              ; preds = %209, %206
  store i1 true, ptr %22, align 1
  br label %218

218:                                              ; preds = %217, %198
  %219 = load i1, ptr %22, align 1
  %220 = xor i1 %219, true
  %221 = xor i1 %220, true
  %222 = xor i1 %221, true
  %223 = zext i1 %222 to i32
  %224 = sext i32 %223 to i64
  %225 = icmp ne i64 %224, 0
  br i1 %225, label %226, label %227

226:                                              ; preds = %218
  store i32 16, ptr %44, align 4
  store i32 9, ptr %48, align 4
  br label %236

227:                                              ; preds = %218
  %228 = load i32, ptr %41, align 4
  %229 = load i32, ptr %39, align 4
  %230 = icmp eq i32 %228, %229
  br i1 %230, label %234, label %231

231:                                              ; preds = %227
  %232 = load i32, ptr %39, align 4
  %233 = icmp eq i32 %232, -1
  br label %234

234:                                              ; preds = %231, %227
  %235 = phi i1 [ true, %227 ], [ %233, %231 ]
  call void @llvm.assume(i1 %235)
  br label %236

236:                                              ; preds = %234, %226, %115, %76
  %237 = load i32, ptr %48, align 4
  %238 = icmp ne i32 %237, 0
  %239 = xor i1 %238, true
  %240 = xor i1 %239, true
  %241 = zext i1 %240 to i32
  %242 = sext i32 %241 to i64
  %243 = icmp ne i64 %242, 0
  br i1 %243, label %244, label %250

244:                                              ; preds = %236
  %245 = load i32, ptr %48, align 4
  %246 = load i32, ptr %41, align 4
  %247 = load ptr, ptr %45, align 8
  %248 = load i32, ptr %44, align 4
  %249 = load ptr, ptr %43, align 8
  call void @zend_wrong_parameter_error(i32 noundef %245, i32 noundef %246, ptr noundef %247, i32 noundef %248, ptr noundef %249)
  br label %308

250:                                              ; preds = %236
  br label %251

251:                                              ; preds = %250
  %252 = load i64, ptr %32, align 8
  %253 = icmp ugt i64 %252, 255
  br i1 %253, label %254, label %261

254:                                              ; preds = %251
  call void (ptr, i32, ptr, ...) @php_error_docref(ptr noundef null, i32 noundef 2, ptr noundef @.str.2, i32 noundef 255)
  br label %255

255:                                              ; preds = %254
  br label %256

256:                                              ; preds = %255
  %257 = load ptr, ptr %30, align 8
  %258 = getelementptr inbounds %struct._zval_struct, ptr %257, i32 0, i32 1
  store i32 2, ptr %258, align 8
  br label %259

259:                                              ; preds = %256
  br label %308

260:                                              ; No predecessors!
  br label %261

261:                                              ; preds = %260, %251
  %262 = load ptr, ptr %31, align 8
  %263 = call ptr @php_network_gethostbyname(ptr noundef %262)
  store ptr %263, ptr %33, align 8
  %264 = load ptr, ptr %33, align 8
  %265 = icmp ne ptr %264, null
  br i1 %265, label %273, label %266

266:                                              ; preds = %261
  br label %267

267:                                              ; preds = %266
  br label %268

268:                                              ; preds = %267
  %269 = load ptr, ptr %30, align 8
  %270 = getelementptr inbounds %struct._zval_struct, ptr %269, i32 0, i32 1
  store i32 2, ptr %270, align 8
  br label %271

271:                                              ; preds = %268
  br label %308

272:                                              ; No predecessors!
  br label %273

273:                                              ; preds = %272, %261
  br label %274

274:                                              ; preds = %273
  %275 = call ptr @_zend_new_array_0()
  store ptr %275, ptr %49, align 8
  %276 = load ptr, ptr %30, align 8
  store ptr %276, ptr %50, align 8
  %277 = load ptr, ptr %49, align 8
  %278 = load ptr, ptr %50, align 8
  %279 = getelementptr inbounds %struct._zval_struct, ptr %278, i32 0, i32 0
  store ptr %277, ptr %279, align 8
  %280 = load ptr, ptr %50, align 8
  %281 = getelementptr inbounds %struct._zval_struct, ptr %280, i32 0, i32 1
  store i32 775, ptr %281, align 8
  br label %282

282:                                              ; preds = %274
  store i32 0, ptr %35, align 4
  br label %283

283:                                              ; preds = %305, %282
  %284 = load ptr, ptr %33, align 8
  %285 = getelementptr inbounds %struct.hostent, ptr %284, i32 0, i32 4
  %286 = load ptr, ptr %285, align 8
  %287 = load i32, ptr %35, align 4
  %288 = sext i32 %287 to i64
  %289 = getelementptr inbounds ptr, ptr %286, i64 %288
  call void @llvm.memcpy.p0.p0.i64(ptr align 8 %52, ptr align 8 %289, i64 8, i1 false)
  %290 = load ptr, ptr %52, align 8
  %291 = icmp ne ptr %290, null
  br i1 %291, label %293, label %292

292:                                              ; preds = %283
  br label %308

293:                                              ; preds = %283
  %294 = load ptr, ptr %52, align 8
  call void @llvm.memcpy.p0.p0.i64(ptr align 4 %34, ptr align 4 %294, i64 4, i1 false)
  %295 = getelementptr inbounds [16 x i8], ptr %36, i64 0, i64 0
  %296 = call ptr @inet_ntop(i32 noundef 2, ptr noundef %34, ptr noundef %295, i32 noundef 16) #10
  store ptr %296, ptr %51, align 8
  %297 = icmp ne ptr %296, null
  br i1 %297, label %300, label %298

298:                                              ; preds = %293
  %299 = load ptr, ptr %31, align 8
  call void (ptr, i32, ptr, ...) @php_error_docref(ptr noundef null, i32 noundef 2, ptr noundef @.str.3, ptr noundef %299)
  br label %305

300:                                              ; preds = %293
  %301 = load ptr, ptr %30, align 8
  %302 = load ptr, ptr %51, align 8
  %303 = call i32 @add_next_index_string(ptr noundef %301, ptr noundef %302)
  br label %304

304:                                              ; preds = %300
  br label %305

305:                                              ; preds = %304, %298
  %306 = load i32, ptr %35, align 4
  %307 = add nsw i32 %306, 1
  store i32 %307, ptr %35, align 4
  br label %283

308:                                              ; preds = %292, %271, %259, %244
  ret void
}