; Function Attrs: nounwind uwtable
define hidden void @zif_gethostbynamel(ptr noundef %0, ptr noundef %1) local_unnamed_addr #0 {
  %3 = alloca ptr, align 8
  %4 = alloca %struct.in_addr, align 4
  %5 = alloca [16 x i8], align 16
  %6 = getelementptr inbounds i8, ptr %0, i64 44
  %7 = load i32, ptr %6, align 4
  %cond = icmp eq i32 %7, 1
  br i1 %cond, label %9, label %8

8:                                                ; preds = %2
  tail call void @zend_wrong_parameters_count_error(i32 noundef 1, i32 noundef 1) #12
  br label %.thread121

9:                                                ; preds = %2
  %10 = getelementptr inbounds i8, ptr %0, i64 80
  %11 = getelementptr inbounds i8, ptr %0, i64 88
  %12 = load i8, ptr %11, align 8
  %13 = icmp eq i8 %12, 6
  br i1 %13, label %.critedge, label %15

.critedge:                                        ; preds = %9
  %14 = load ptr, ptr %10, align 8
  store ptr %14, ptr %3, align 8
  br label %17

15:                                               ; preds = %9
  %16 = call zeroext i1 @zend_parse_arg_str_slow(ptr noundef nonnull %10, ptr noundef nonnull %3, i32 noundef 1) #12
  br i1 %16, label %thread-pre-split, label %.thread121

thread-pre-split:                                 ; preds = %15
  %.pr = load ptr, ptr %3, align 8
  br label %17

17:                                               ; preds = %thread-pre-split, %.critedge
  %18 = phi ptr [ %.pr, %thread-pre-split ], [ %14, %.critedge ]
  %.not100 = icmp eq ptr %18, null
  br i1 %.not100, label %._crit_edge, label %19

._crit_edge:                                      ; preds = %17
  %.pre = load i64, ptr inttoptr (i64 16 to ptr), align 16
  br label %24

19:                                               ; preds = %17
  %20 = getelementptr inbounds i8, ptr %18, i64 24
  %21 = getelementptr inbounds i8, ptr %18, i64 16
  %22 = load i64, ptr %21, align 8
  %23 = call i64 @strlen(ptr noundef nonnull dereferenceable(1) %20) #14
  %.not101 = icmp eq i64 %22, %23
  br i1 %.not101, label %24, label %.thread121

.thread121:                                       ; preds = %15, %19, %8
  %.089.ph = phi i32 [ 0, %8 ], [ 16, %19 ], [ 16, %15 ]
  %.088.ph = phi ptr [ null, %8 ], [ %10, %19 ], [ %10, %15 ]
  %.087.ph = phi i32 [ 0, %8 ], [ 1, %19 ], [ 1, %15 ]
  %.086.ph = phi i32 [ 1, %8 ], [ 9, %19 ], [ 9, %15 ]
  call void @zend_wrong_parameter_error(i32 noundef %.086.ph, i32 noundef %.087.ph, ptr noundef null, i32 noundef %.089.ph, ptr noundef %.088.ph) #12
  br label %.loopexit

24:                                               ; preds = %._crit_edge, %19
  %25 = phi i64 [ %.pre, %._crit_edge ], [ %22, %19 ]
  %26 = getelementptr inbounds i8, ptr %18, i64 24
  %27 = icmp ugt i64 %25, 255
  br i1 %27, label %28, label %30

28:                                               ; preds = %24
  call void (ptr, i32, ptr, ...) @php_error_docref(ptr noundef null, i32 noundef 2, ptr noundef nonnull @.str.2, i32 noundef 255) #12
  %29 = getelementptr inbounds i8, ptr %1, i64 8
  store i32 2, ptr %29, align 8
  br label %.loopexit

30:                                               ; preds = %24
  %31 = call ptr @php_network_gethostbyname(ptr noundef nonnull %26) #12
  %.not103 = icmp eq ptr %31, null
  br i1 %.not103, label %32, label %34

32:                                               ; preds = %30
  %33 = getelementptr inbounds i8, ptr %1, i64 8
  store i32 2, ptr %33, align 8
  br label %.loopexit

34:                                               ; preds = %30
  %35 = call ptr @_zend_new_array_0() #12
  store ptr %35, ptr %1, align 8
  %36 = getelementptr inbounds i8, ptr %1, i64 8
  store i32 775, ptr %36, align 8
  %37 = getelementptr inbounds i8, ptr %31, i64 24
  %38 = load ptr, ptr %37, align 8
  %.0.copyload141 = load ptr, ptr %38, align 8
  %.not104142 = icmp eq ptr %.0.copyload141, null
  br i1 %.not104142, label %.loopexit, label %.lr.ph

.lr.ph:                                           ; preds = %34, %44
  %indvars.iv = phi i64 [ %indvars.iv.next, %44 ], [ 0, %34 ]
  %.0.copyload144 = phi ptr [ %.0.copyload, %44 ], [ %.0.copyload141, %34 ]
  %39 = load i32, ptr %.0.copyload144, align 4
  store i32 %39, ptr %4, align 4
  %40 = call ptr @inet_ntop(i32 noundef 2, ptr noundef nonnull %4, ptr noundef nonnull %5, i32 noundef 16) #12
  %.not105 = icmp eq ptr %40, null
  br i1 %.not105, label %41, label %42

41:                                               ; preds = %.lr.ph
  call void (ptr, i32, ptr, ...) @php_error_docref(ptr noundef null, i32 noundef 2, ptr noundef nonnull @.str.3, ptr noundef nonnull %26) #12
  br label %44

42:                                               ; preds = %.lr.ph
  %43 = call i32 @add_next_index_string(ptr noundef nonnull %1, ptr noundef nonnull %40) #12
  br label %44

44:                                               ; preds = %42, %41
  %indvars.iv.next = add nuw nsw i64 %indvars.iv, 1
  %45 = load ptr, ptr %37, align 8
  %46 = getelementptr inbounds ptr, ptr %45, i64 %indvars.iv.next
  %.0.copyload = load ptr, ptr %46, align 8
  %.not104 = icmp eq ptr %.0.copyload, null
  br i1 %.not104, label %.loopexit, label %.lr.ph

.loopexit:                                        ; preds = %44, %34, %32, %28, %.thread121
  ret void
}